; Function Attrs: nounwind uwtable
define internal void @_iop_toggle_callback(ptr noundef %0, ptr noundef readonly captures(none) %1) #0 {
  %3 = alloca i32, align 4
  %4 = load ptr, ptr getelementptr inbounds nuw (i8, ptr @darktable, i64 104), align 8, !tbaa !54
  %5 = getelementptr inbounds nuw i8, ptr %4, i64 96
  %6 = load i32, ptr %5, align 8, !tbaa !87
  %.not = icmp eq i32 %6, 0
  br i1 %.not, label %7, label %17

7:                                                ; preds = %2
  %8 = load ptr, ptr %1, align 8, !tbaa !51
  %9 = getelementptr inbounds nuw i8, ptr %1, i64 8
  %10 = load ptr, ptr %9, align 8, !tbaa !53
  call void @llvm.lifetime.start.p0(i64 4, ptr nonnull %3) #11
  %11 = load i32, ptr %10, align 4, !tbaa !42
  store i32 %11, ptr %3, align 4, !tbaa !42
  %12 = tail call i64 @gtk_toggle_button_get_type() #14
  %13 = tail call ptr @g_type_check_instance_cast(ptr noundef %0, i64 noundef %12) #11
  %14 = tail call i32 @gtk_toggle_button_get_active(ptr noundef %13) #11
  store i32 %14, ptr %10, align 4, !tbaa !42
  %.not9 = icmp eq i32 %14, %11
  br i1 %.not9, label %16, label %15

15:                                               ; preds = %7
  call void @dt_iop_gui_changed(ptr noundef %8, ptr noundef %0, ptr noundef nonnull %3) #11
  br label %16

16:                                               ; preds = %15, %7
  call void @llvm.lifetime.end.p0(i64 4, ptr nonnull %3) #11
  br label %17

17:                                               ; preds = %2, %16
  ret void
}